target datalayout = "e-m:e-p270:32:32-p271:32:32-p272:64:64-i64:64-i128:128-f80:128-n8:16:32:64-S128"
target triple = "x86_64-pc-linux-gnu"

@hf_dsmcc_un_sess_rsrc_value_type = internal global i32 0, align 4
@hf_dsmcc_un_sess_rsrc_value_count = internal global i32 0, align 4
@hf_dsmcc_un_sess_rsrc_value_data = internal global i32 0, align 4
@hf_dsmcc_un_sess_rsrc_most_desired = internal global i32 0, align 4
@hf_dsmcc_un_sess_rsrc_least_desired = internal global i32 0, align 4

; Function Attrs: null_pointer_is_valid sspstrong uwtable
define internal i32 @dissect_dsmcc_un_session_resource_value(ptr noundef %0, i32 noundef %1, ptr noundef %2, ptr noundef %3, i32 noundef %4) #0 {
  %6 = alloca ptr, align 8
  %7 = alloca i32, align 4
  %8 = alloca ptr, align 8
  %9 = alloca ptr, align 8
  %10 = alloca i32, align 4
  %11 = alloca i32, align 4
  %12 = alloca i32, align 4
  %13 = alloca i32, align 4
  %14 = alloca i32, align 4
  store ptr %0, ptr %6, align 8
  store i32 %1, ptr %7, align 4
  store ptr %2, ptr %8, align 8
  store ptr %3, ptr %9, align 8
  store i32 %4, ptr %10, align 4
  call void @llvm.lifetime.start.p0(i64 4, ptr %11) #4
  call void @llvm.lifetime.start.p0(i64 4, ptr %12) #4
  call void @llvm.lifetime.start.p0(i64 4, ptr %13) #4
  call void @llvm.lifetime.start.p0(i64 4, ptr %14) #4
  %15 = load i32, ptr %7, align 4
  store i32 %15, ptr %14, align 4
  %16 = load ptr, ptr %9, align 8
  %17 = load i32, ptr @hf_dsmcc_un_sess_rsrc_value_type, align 4
  %18 = load ptr, ptr %6, align 8
  %19 = load i32, ptr %7, align 4
  %20 = call ptr @proto_tree_add_item_ret_uint(ptr noundef %16, i32 noundef %17, ptr noundef %18, i32 noundef %19, i32 noundef 2, i32 noundef 0, ptr noundef %13)
  %21 = load i32, ptr %7, align 4
  %22 = add i32 %21, 2
  store i32 %22, ptr %7, align 4
  %23 = load i32, ptr %13, align 4
  %24 = icmp eq i32 %23, 1
  br i1 %24, label %25, label %35

25:                                               ; preds = %5
  %26 = load ptr, ptr %9, align 8
  %27 = load i32, ptr @hf_dsmcc_un_sess_rsrc_value_data, align 4
  %28 = load ptr, ptr %6, align 8
  %29 = load i32, ptr %7, align 4
  %30 = load i32, ptr %10, align 4
  %31 = call ptr @proto_tree_add_item(ptr noundef %26, i32 noundef %27, ptr noundef %28, i32 noundef %29, i32 noundef %30, i32 noundef 0)
  %32 = load i32, ptr %10, align 4
  %33 = load i32, ptr %7, align 4
  %34 = add i32 %33, %32
  store i32 %34, ptr %7, align 4
  br label %88

35:                                               ; preds = %5
  %36 = load i32, ptr %13, align 4
  %37 = icmp eq i32 %36, 2
  br i1 %37, label %38, label %64

38:                                               ; preds = %35
  %39 = load ptr, ptr %9, align 8
  %40 = load i32, ptr @hf_dsmcc_un_sess_rsrc_value_count, align 4
  %41 = load ptr, ptr %6, align 8
  %42 = load i32, ptr %7, align 4
  %43 = call ptr @proto_tree_add_item_ret_uint(ptr noundef %39, i32 noundef %40, ptr noundef %41, i32 noundef %42, i32 noundef 2, i32 noundef 0, ptr noundef %12)
  %44 = load i32, ptr %7, align 4
  %45 = add i32 %44, 2
  store i32 %45, ptr %7, align 4
  store i32 0, ptr %11, align 4
  br label %46

46:                                               ; preds = %60, %38
  %47 = load i32, ptr %11, align 4
  %48 = load i32, ptr %12, align 4
  %49 = icmp ult i32 %47, %48
  br i1 %49, label %50, label %63

50:                                               ; preds = %46
  %51 = load ptr, ptr %9, align 8
  %52 = load i32, ptr @hf_dsmcc_un_sess_rsrc_value_data, align 4
  %53 = load ptr, ptr %6, align 8
  %54 = load i32, ptr %7, align 4
  %55 = load i32, ptr %10, align 4
  %56 = call ptr @proto_tree_add_item(ptr noundef %51, i32 noundef %52, ptr noundef %53, i32 noundef %54, i32 noundef %55, i32 noundef 0)
  %57 = load i32, ptr %10, align 4
  %58 = load i32, ptr %7, align 4
  %59 = add i32 %58, %57
  store i32 %59, ptr %7, align 4
  br label %60

60:                                               ; preds = %50
  %61 = load i32, ptr %11, align 4
  %62 = add i32 %61, 1
  store i32 %62, ptr %11, align 4
  br label %46, !llvm.loop !31

63:                                               ; preds = %46
  br label %87

64:                                               ; preds = %35
  %65 = load i32, ptr %13, align 4
  %66 = icmp eq i32 %65, 3
  br i1 %66, label %67, label %86

67:                                               ; preds = %64
  %68 = load ptr, ptr %9, align 8
  %69 = load i32, ptr @hf_dsmcc_un_sess_rsrc_most_desired, align 4
  %70 = load ptr, ptr %6, align 8
  %71 = load i32, ptr %7, align 4
  %72 = load i32, ptr %10, align 4
  %73 = call ptr @proto_tree_add_item(ptr noundef %68, i32 noundef %69, ptr noundef %70, i32 noundef %71, i32 noundef %72, i32 noundef 0)
  %74 = load i32, ptr %10, align 4
  %75 = load i32, ptr %7, align 4
  %76 = add i32 %75, %74
  store i32 %76, ptr %7, align 4
  %77 = load ptr, ptr %9, align 8
  %78 = load i32, ptr @hf_dsmcc_un_sess_rsrc_least_desired, align 4
  %79 = load ptr, ptr %6, align 8
  %80 = load i32, ptr %7, align 4
  %81 = load i32, ptr %10, align 4
  %82 = call ptr @proto_tree_add_item(ptr noundef %77, i32 noundef %78, ptr noundef %79, i32 noundef %80, i32 noundef %81, i32 noundef 0)
  %83 = load i32, ptr %10, align 4
  %84 = load i32, ptr %7, align 4
  %85 = add i32 %84, %83
  store i32 %85, ptr %7, align 4
  br label %86

86:                                               ; preds = %67, %64
  br label %87

87:                                               ; preds = %86, %63
  br label %88

88:                                               ; preds = %87, %25
  %89 = load i32, ptr %7, align 4
  %90 = load i32, ptr %14, align 4
  %91 = sub i32 %89, %90
  call void @llvm.lifetime.end.p0(i64 4, ptr %14) #4
  call void @llvm.lifetime.end.p0(i64 4, ptr %13) #4
  call void @llvm.lifetime.end.p0(i64 4, ptr %12) #4
  call void @llvm.lifetime.end.p0(i64 4, ptr %11) #4
  ret i32 %91
}