; Function Attrs: null_pointer_is_valid sspstrong uwtable
define internal fastcc noundef i32 @dissect_dsmcc_un_session_resource_value(ptr noundef %0, i32 noundef %1, ptr noundef %2, i32 noundef range(i32 1, 21) %3) unnamed_addr #0 {
  %5 = alloca i32, align 4
  %6 = alloca i32, align 4
  call void @llvm.lifetime.start.p0(i64 4, ptr nonnull %5) #3
  call void @llvm.lifetime.start.p0(i64 4, ptr nonnull %6) #3
  %7 = load i32, ptr @hf_dsmcc_un_sess_rsrc_value_type, align 4
  %8 = call ptr @proto_tree_add_item_ret_uint(ptr noundef %2, i32 noundef %7, ptr noundef %0, i32 noundef %1, i32 noundef 2, i32 noundef 0, ptr noundef nonnull %6)
  %9 = add i32 %1, 2
  %10 = load i32, ptr %6, align 4
  switch i32 %10, label %.loopexit [
    i32 1, label %11
    i32 2, label %15
    i32 3, label %26
  ]

11:                                               ; preds = %4
  %12 = load i32, ptr @hf_dsmcc_un_sess_rsrc_value_data, align 4
  %13 = call ptr @proto_tree_add_item(ptr noundef %2, i32 noundef %12, ptr noundef %0, i32 noundef %9, i32 noundef %3, i32 noundef 0)
  %14 = add i32 %3, %9
  br label %.loopexit

15:                                               ; preds = %4
  %16 = load i32, ptr @hf_dsmcc_un_sess_rsrc_value_count, align 4
  %17 = call ptr @proto_tree_add_item_ret_uint(ptr noundef %2, i32 noundef %16, ptr noundef %0, i32 noundef %9, i32 noundef 2, i32 noundef 0, ptr noundef nonnull %5)
  %18 = add i32 %1, 4
  %19 = load i32, ptr %5, align 4
  %.not = icmp eq i32 %19, 0
  br i1 %.not, label %.loopexit, label %.lr.ph

.lr.ph:                                           ; preds = %15, %.lr.ph
  %.12 = phi i32 [ %22, %.lr.ph ], [ %18, %15 ]
  %.0361 = phi i32 [ %23, %.lr.ph ], [ 0, %15 ]
  %20 = load i32, ptr @hf_dsmcc_un_sess_rsrc_value_data, align 4
  %21 = call ptr @proto_tree_add_item(ptr noundef %2, i32 noundef %20, ptr noundef %0, i32 noundef %.12, i32 noundef %3, i32 noundef 0)
  %22 = add i32 %.12, %3
  %23 = add nuw i32 %.0361, 1
  %24 = load i32, ptr %5, align 4
  %25 = icmp ult i32 %23, %24
  br i1 %25, label %.lr.ph, label %.loopexit, !llvm.loop !34

26:                                               ; preds = %4
  %27 = load i32, ptr @hf_dsmcc_un_sess_rsrc_most_desired, align 4
  %28 = call ptr @proto_tree_add_item(ptr noundef %2, i32 noundef %27, ptr noundef %0, i32 noundef %9, i32 noundef %3, i32 noundef 0)
  %29 = add i32 %3, %9
  %30 = load i32, ptr @hf_dsmcc_un_sess_rsrc_least_desired, align 4
  %31 = call ptr @proto_tree_add_item(ptr noundef %2, i32 noundef %30, ptr noundef %0, i32 noundef %29, i32 noundef %3, i32 noundef 0)
  %32 = add i32 %29, %3
  br label %.loopexit

.loopexit:                                        ; preds = %.lr.ph, %15, %4, %26, %11
  %.0 = phi i32 [ %14, %11 ], [ %32, %26 ], [ %9, %4 ], [ %18, %15 ], [ %22, %.lr.ph ]
  %33 = sub i32 %.0, %1
  call void @llvm.lifetime.end.p0(i64 4, ptr nonnull %6) #3
  call void @llvm.lifetime.end.p0(i64 4, ptr nonnull %5) #3
  ret i32 %33
}